target datalayout = "e-m:e-p270:32:32-p271:32:32-p272:64:64-i64:64-i128:128-f80:128-n8:16:32:64-S128"
target triple = "x86_64-pc-linux-gnu"

%struct.Wln_Ret_t_ = type { ptr, %struct.Vec_Int_t_, %struct.Vec_Int_t_, %struct.Vec_Int_t_, %struct.Vec_Int_t_, %struct.Vec_Int_t_, %struct.Vec_Int_t_, %struct.Vec_Int_t_, %struct.Vec_Int_t_, %struct.Vec_Int_t_, %struct.Vec_Int_t_, i32, i32 }
%struct.Vec_Int_t_ = type { i32, i32, ptr }

; Function Attrs: nounwind uwtable
define i32 @Wln_RetMemUsage(ptr noundef %0) #0 {
  %2 = alloca ptr, align 8
  %3 = alloca i32, align 4
  store ptr %0, ptr %2, align 8, !tbaa !3
  call void @llvm.lifetime.start.p0(i64 4, ptr %3) #11
  store i32 176, ptr %3, align 4, !tbaa !8
  %4 = load ptr, ptr %2, align 8, !tbaa !3
  %5 = getelementptr inbounds nuw %struct.Wln_Ret_t_, ptr %4, i32 0, i32 1
  %6 = getelementptr inbounds nuw %struct.Vec_Int_t_, ptr %5, i32 0, i32 0
  %7 = load i32, ptr %6, align 8, !tbaa !73
  %8 = mul nsw i32 4, %7
  %9 = load i32, ptr %3, align 4, !tbaa !8
  %10 = add nsw i32 %9, %8
  store i32 %10, ptr %3, align 4, !tbaa !8
  %11 = load ptr, ptr %2, align 8, !tbaa !3
  %12 = getelementptr inbounds nuw %struct.Wln_Ret_t_, ptr %11, i32 0, i32 2
  %13 = getelementptr inbounds nuw %struct.Vec_Int_t_, ptr %12, i32 0, i32 0
  %14 = load i32, ptr %13, align 8, !tbaa !74
  %15 = mul nsw i32 4, %14
  %16 = load i32, ptr %3, align 4, !tbaa !8
  %17 = add nsw i32 %16, %15
  store i32 %17, ptr %3, align 4, !tbaa !8
  %18 = load ptr, ptr %2, align 8, !tbaa !3
  %19 = getelementptr inbounds nuw %struct.Wln_Ret_t_, ptr %18, i32 0, i32 3
  %20 = getelementptr inbounds nuw %struct.Vec_Int_t_, ptr %19, i32 0, i32 0
  %21 = load i32, ptr %20, align 8, !tbaa !75
  %22 = mul nsw i32 4, %21
  %23 = load i32, ptr %3, align 4, !tbaa !8
  %24 = add nsw i32 %23, %22
  store i32 %24, ptr %3, align 4, !tbaa !8
  %25 = load ptr, ptr %2, align 8, !tbaa !3
  %26 = getelementptr inbounds nuw %struct.Wln_Ret_t_, ptr %25, i32 0, i32 4
  %27 = getelementptr inbounds nuw %struct.Vec_Int_t_, ptr %26, i32 0, i32 0
  %28 = load i32, ptr %27, align 8, !tbaa !76
  %29 = mul nsw i32 4, %28
  %30 = load i32, ptr %3, align 4, !tbaa !8
  %31 = add nsw i32 %30, %29
  store i32 %31, ptr %3, align 4, !tbaa !8
  %32 = load ptr, ptr %2, align 8, !tbaa !3
  %33 = getelementptr inbounds nuw %struct.Wln_Ret_t_, ptr %32, i32 0, i32 5
  %34 = getelementptr inbounds nuw %struct.Vec_Int_t_, ptr %33, i32 0, i32 0
  %35 = load i32, ptr %34, align 8, !tbaa !77
  %36 = mul nsw i32 4, %35
  %37 = load i32, ptr %3, align 4, !tbaa !8
  %38 = add nsw i32 %37, %36
  store i32 %38, ptr %3, align 4, !tbaa !8
  %39 = load ptr, ptr %2, align 8, !tbaa !3
  %40 = getelementptr inbounds nuw %struct.Wln_Ret_t_, ptr %39, i32 0, i32 6
  %41 = getelementptr inbounds nuw %struct.Vec_Int_t_, ptr %40, i32 0, i32 0
  %42 = load i32, ptr %41, align 8, !tbaa !78
  %43 = mul nsw i32 4, %42
  %44 = load i32, ptr %3, align 4, !tbaa !8
  %45 = add nsw i32 %44, %43
  store i32 %45, ptr %3, align 4, !tbaa !8
  %46 = load ptr, ptr %2, align 8, !tbaa !3
  %47 = getelementptr inbounds nuw %struct.Wln_Ret_t_, ptr %46, i32 0, i32 7
  %48 = getelementptr inbounds nuw %struct.Vec_Int_t_, ptr %47, i32 0, i32 0
  %49 = load i32, ptr %48, align 8, !tbaa !79
  %50 = mul nsw i32 4, %49
  %51 = load i32, ptr %3, align 4, !tbaa !8
  %52 = add nsw i32 %51, %50
  store i32 %52, ptr %3, align 4, !tbaa !8
  %53 = load ptr, ptr %2, align 8, !tbaa !3
  %54 = getelementptr inbounds nuw %struct.Wln_Ret_t_, ptr %53, i32 0, i32 8
  %55 = getelementptr inbounds nuw %struct.Vec_Int_t_, ptr %54, i32 0, i32 0
  %56 = load i32, ptr %55, align 8, !tbaa !80
  %57 = mul nsw i32 4, %56
  %58 = load i32, ptr %3, align 4, !tbaa !8
  %59 = add nsw i32 %58, %57
  store i32 %59, ptr %3, align 4, !tbaa !8
  %60 = load ptr, ptr %2, align 8, !tbaa !3
  %61 = getelementptr inbounds nuw %struct.Wln_Ret_t_, ptr %60, i32 0, i32 9
  %62 = getelementptr inbounds nuw %struct.Vec_Int_t_, ptr %61, i32 0, i32 0
  %63 = load i32, ptr %62, align 8, !tbaa !81
  %64 = mul nsw i32 4, %63
  %65 = load i32, ptr %3, align 4, !tbaa !8
  %66 = add nsw i32 %65, %64
  store i32 %66, ptr %3, align 4, !tbaa !8
  %67 = load ptr, ptr %2, align 8, !tbaa !3
  %68 = getelementptr inbounds nuw %struct.Wln_Ret_t_, ptr %67, i32 0, i32 10
  %69 = getelementptr inbounds nuw %struct.Vec_Int_t_, ptr %68, i32 0, i32 0
  %70 = load i32, ptr %69, align 8, !tbaa !82
  %71 = mul nsw i32 4, %70
  %72 = load i32, ptr %3, align 4, !tbaa !8
  %73 = add nsw i32 %72, %71
  store i32 %73, ptr %3, align 4, !tbaa !8
  %74 = load i32, ptr %3, align 4, !tbaa !8
  call void @llvm.lifetime.end.p0(i64 4, ptr %3) #11
  ret i32 %74
}