; Function Attrs: mustprogress nofree norecurse nosync nounwind willreturn memory(argmem: read) uwtable
define range(i32 176, 173) i32 @Wln_RetMemUsage(ptr noundef readonly captures(none) %0) local_unnamed_addr #11 {
  %2 = getelementptr inbounds nuw i8, ptr %0, i64 8
  %3 = load i32, ptr %2, align 8, !tbaa !69
  %4 = getelementptr inbounds nuw i8, ptr %0, i64 24
  %5 = load i32, ptr %4, align 8, !tbaa !70
  %6 = add i32 %5, %3
  %7 = getelementptr inbounds nuw i8, ptr %0, i64 40
  %8 = load i32, ptr %7, align 8, !tbaa !71
  %9 = add i32 %6, %8
  %10 = getelementptr inbounds nuw i8, ptr %0, i64 56
  %11 = load i32, ptr %10, align 8, !tbaa !72
  %12 = add i32 %9, %11
  %13 = getelementptr inbounds nuw i8, ptr %0, i64 72
  %14 = load i32, ptr %13, align 8, !tbaa !73
  %15 = add i32 %12, %14
  %16 = getelementptr inbounds nuw i8, ptr %0, i64 88
  %17 = load i32, ptr %16, align 8, !tbaa !74
  %18 = add i32 %15, %17
  %19 = getelementptr inbounds nuw i8, ptr %0, i64 104
  %20 = load i32, ptr %19, align 8, !tbaa !75
  %21 = add i32 %18, %20
  %22 = getelementptr inbounds nuw i8, ptr %0, i64 120
  %23 = load i32, ptr %22, align 8, !tbaa !76
  %24 = add i32 %21, %23
  %25 = getelementptr inbounds nuw i8, ptr %0, i64 136
  %26 = load i32, ptr %25, align 8, !tbaa !77
  %27 = add i32 %24, %26
  %28 = getelementptr inbounds nuw i8, ptr %0, i64 152
  %29 = load i32, ptr %28, align 8, !tbaa !78
  %30 = add i32 %27, %29
  %31 = shl i32 %30, 2
  %32 = add i32 %31, 176
  ret i32 %32
}